target datalayout = "e-m:e-p270:32:32-p271:32:32-p272:64:64-i64:64-i128:128-f80:128-n8:16:32:64-S128"
target triple = "x86_64-pc-linux-gnu"

%struct.VP8LBitReader = type { i64, ptr, i64, i64, i32, i32 }

; Function Attrs: nounwind uwtable
define internal void @VP8LSetEndOfStream(ptr noundef %0) #0 {
  %2 = alloca ptr, align 8
  store ptr %0, ptr %2, align 8
  %3 = load ptr, ptr %2, align 8
  %4 = getelementptr inbounds %struct.VP8LBitReader, ptr %3, i32 0, i32 5
  store i32 1, ptr %4, align 4
  %5 = load ptr, ptr %2, align 8
  %6 = getelementptr inbounds %struct.VP8LBitReader, ptr %5, i32 0, i32 4
  store i32 0, ptr %6, align 8
  ret void
}

; Function Attrs: nounwind uwtable
define internal i32 @VP8LIsEndOfStream(ptr noundef %0) #0 {
  %2 = alloca ptr, align 8
  store ptr %0, ptr %2, align 8
  %3 = load ptr, ptr %2, align 8
  %4 = getelementptr inbounds %struct.VP8LBitReader, ptr %3, i32 0, i32 5
  %5 = load i32, ptr %4, align 4
  %6 = icmp ne i32 %5, 0
  br i1 %6, label %22, label %7

7:                                                ; preds = %1
  %8 = load ptr, ptr %2, align 8
  %9 = getelementptr inbounds %struct.VP8LBitReader, ptr %8, i32 0, i32 3
  %10 = load i64, ptr %9, align 8
  %11 = load ptr, ptr %2, align 8
  %12 = getelementptr inbounds %struct.VP8LBitReader, ptr %11, i32 0, i32 2
  %13 = load i64, ptr %12, align 8
  %14 = icmp eq i64 %10, %13
  br i1 %14, label %15, label %20

15:                                               ; preds = %7
  %16 = load ptr, ptr %2, align 8
  %17 = getelementptr inbounds %struct.VP8LBitReader, ptr %16, i32 0, i32 4
  %18 = load i32, ptr %17, align 8
  %19 = icmp sgt i32 %18, 64
  br label %20

20:                                               ; preds = %15, %7
  %21 = phi i1 [ false, %7 ], [ %19, %15 ]
  br label %22

22:                                               ; preds = %20, %1
  %23 = phi i1 [ true, %1 ], [ %21, %20 ]
  %24 = zext i1 %23 to i32
  ret i32 %24
}

; Function Attrs: nounwind uwtable
define internal void @ShiftBytes(ptr noundef %0) #0 {
  %2 = alloca ptr, align 8
  store ptr %0, ptr %2, align 8
  br label %3

3:                                                ; preds = %18, %1
  %4 = load ptr, ptr %2, align 8
  %5 = getelementptr inbounds %struct.VP8LBitReader, ptr %4, i32 0, i32 4
  %6 = load i32, ptr %5, align 8
  %7 = icmp sge i32 %6, 8
  br i1 %7, label %8, label %16

8:                                                ; preds = %3
  %9 = load ptr, ptr %2, align 8
  %10 = getelementptr inbounds %struct.VP8LBitReader, ptr %9, i32 0, i32 3
  %11 = load i64, ptr %10, align 8
  %12 = load ptr, ptr %2, align 8
  %13 = getelementptr inbounds %struct.VP8LBitReader, ptr %12, i32 0, i32 2
  %14 = load i64, ptr %13, align 8
  %15 = icmp ult i64 %11, %14
  br label %16

16:                                               ; preds = %8, %3
  %17 = phi i1 [ false, %3 ], [ %15, %8 ]
  br i1 %17, label %18, label %45

18:                                               ; preds = %16
  %19 = load ptr, ptr %2, align 8
  %20 = getelementptr inbounds %struct.VP8LBitReader, ptr %19, i32 0, i32 0
  %21 = load i64, ptr %20, align 8
  %22 = lshr i64 %21, 8
  store i64 %22, ptr %20, align 8
  %23 = load ptr, ptr %2, align 8
  %24 = getelementptr inbounds %struct.VP8LBitReader, ptr %23, i32 0, i32 1
  %25 = load ptr, ptr %24, align 8
  %26 = load ptr, ptr %2, align 8
  %27 = getelementptr inbounds %struct.VP8LBitReader, ptr %26, i32 0, i32 3
  %28 = load i64, ptr %27, align 8
  %29 = getelementptr inbounds i8, ptr %25, i64 %28
  %30 = load i8, ptr %29, align 1
  %31 = zext i8 %30 to i64
  %32 = shl i64 %31, 56
  %33 = load ptr, ptr %2, align 8
  %34 = getelementptr inbounds %struct.VP8LBitReader, ptr %33, i32 0, i32 0
  %35 = load i64, ptr %34, align 8
  %36 = or i64 %35, %32
  store i64 %36, ptr %34, align 8
  %37 = load ptr, ptr %2, align 8
  %38 = getelementptr inbounds %struct.VP8LBitReader, ptr %37, i32 0, i32 3
  %39 = load i64, ptr %38, align 8
  %40 = add i64 %39, 1
  store i64 %40, ptr %38, align 8
  %41 = load ptr, ptr %2, align 8
  %42 = getelementptr inbounds %struct.VP8LBitReader, ptr %41, i32 0, i32 4
  %43 = load i32, ptr %42, align 8
  %44 = sub nsw i32 %43, 8
  store i32 %44, ptr %42, align 8
  br label %3, !llvm.loop !7

45:                                               ; preds = %16
  %46 = load ptr, ptr %2, align 8
  %47 = call i32 @VP8LIsEndOfStream(ptr noundef %46)
  %48 = icmp ne i32 %47, 0
  br i1 %48, label %49, label %51

49:                                               ; preds = %45
  %50 = load ptr, ptr %2, align 8
  call void @VP8LSetEndOfStream(ptr noundef %50)
  br label %51

51:                                               ; preds = %49, %45
  ret void
}

; Function Attrs: nounwind uwtable
define internal i32 @WebPMemToUint32(ptr noundef %0) #0 {
  %2 = alloca ptr, align 8
  %3 = alloca i32, align 4
  store ptr %0, ptr %2, align 8
  %4 = load ptr, ptr %2, align 8
  call void @llvm.memcpy.p0.p0.i64(ptr align 4 %3, ptr align 1 %4, i64 4, i1 false)
  %5 = load i32, ptr %3, align 4
  ret i32 %5
}

; Function Attrs: nounwind uwtable
define hidden void @VP8LDoFillBitWindow(ptr noundef %0) #0 {
  %2 = alloca ptr, align 8
  store ptr %0, ptr %2, align 8
  %3 = load ptr, ptr %2, align 8
  %4 = getelementptr inbounds %struct.VP8LBitReader, ptr %3, i32 0, i32 3
  %5 = load i64, ptr %4, align 8
  %6 = add i64 %5, 8
  %7 = load ptr, ptr %2, align 8
  %8 = getelementptr inbounds %struct.VP8LBitReader, ptr %7, i32 0, i32 2
  %9 = load i64, ptr %8, align 8
  %10 = icmp ult i64 %6, %9
  br i1 %10, label %11, label %38

11:                                               ; preds = %1
  %12 = load ptr, ptr %2, align 8
  %13 = getelementptr inbounds %struct.VP8LBitReader, ptr %12, i32 0, i32 0
  %14 = load i64, ptr %13, align 8
  %15 = lshr i64 %14, 32
  store i64 %15, ptr %13, align 8
  %16 = load ptr, ptr %2, align 8
  %17 = getelementptr inbounds %struct.VP8LBitReader, ptr %16, i32 0, i32 4
  %18 = load i32, ptr %17, align 8
  %19 = sub nsw i32 %18, 32
  store i32 %19, ptr %17, align 8
  %20 = load ptr, ptr %2, align 8
  %21 = getelementptr inbounds %struct.VP8LBitReader, ptr %20, i32 0, i32 1
  %22 = load ptr, ptr %21, align 8
  %23 = load ptr, ptr %2, align 8
  %24 = getelementptr inbounds %struct.VP8LBitReader, ptr %23, i32 0, i32 3
  %25 = load i64, ptr %24, align 8
  %26 = getelementptr inbounds i8, ptr %22, i64 %25
  %27 = call i32 @WebPMemToUint32(ptr noundef %26)
  %28 = zext i32 %27 to i64
  %29 = shl i64 %28, 32
  %30 = load ptr, ptr %2, align 8
  %31 = getelementptr inbounds %struct.VP8LBitReader, ptr %30, i32 0, i32 0
  %32 = load i64, ptr %31, align 8
  %33 = or i64 %32, %29
  store i64 %33, ptr %31, align 8
  %34 = load ptr, ptr %2, align 8
  %35 = getelementptr inbounds %struct.VP8LBitReader, ptr %34, i32 0, i32 3
  %36 = load i64, ptr %35, align 8
  %37 = add i64 %36, 4
  store i64 %37, ptr %35, align 8
  br label %40

38:                                               ; preds = %1
  %39 = load ptr, ptr %2, align 8
  call void @ShiftBytes(ptr noundef %39)
  br label %40

40:                                               ; preds = %38, %11
  ret void
}