; Function Attrs: nofree norecurse nosync nounwind memory(read, argmem: readwrite, inaccessiblemem: none) uwtable
define hidden void @VP8LDoFillBitWindow(ptr nocapture noundef %0) local_unnamed_addr #6 {
  %2 = getelementptr inbounds i8, ptr %0, i64 24
  %3 = load i64, ptr %2, align 8
  %4 = add i64 %3, 8
  %5 = getelementptr inbounds i8, ptr %0, i64 16
  %6 = load i64, ptr %5, align 8
  %7 = icmp ult i64 %4, %6
  br i1 %7, label %8, label %21

8:                                                ; preds = %1
  %9 = load i64, ptr %0, align 8
  %10 = lshr i64 %9, 32
  store i64 %10, ptr %0, align 8
  %11 = getelementptr inbounds i8, ptr %0, i64 32
  %12 = load i32, ptr %11, align 8
  %13 = add nsw i32 %12, -32
  store i32 %13, ptr %11, align 8
  %14 = getelementptr inbounds i8, ptr %0, i64 8
  %15 = load ptr, ptr %14, align 8
  %16 = getelementptr inbounds i8, ptr %15, i64 %3
  %.val = load i32, ptr %16, align 1
  %17 = zext i32 %.val to i64
  %18 = shl nuw i64 %17, 32
  %19 = or disjoint i64 %18, %10
  store i64 %19, ptr %0, align 8
  %20 = add i64 %3, 4
  store i64 %20, ptr %2, align 8
  br label %ShiftBytes.exit

21:                                               ; preds = %1
  %22 = getelementptr inbounds i8, ptr %0, i64 32
  %.promoted.i = load i32, ptr %22, align 8
  %23 = icmp sgt i32 %.promoted.i, 7
  br i1 %23, label %.lr.ph.i, label %.critedge.i

.lr.ph.i:                                         ; preds = %21
  %24 = getelementptr inbounds i8, ptr %0, i64 8
  br label %25

25:                                               ; preds = %29, %.lr.ph.i
  %26 = phi i64 [ %3, %.lr.ph.i ], [ %38, %29 ]
  %27 = phi i32 [ %.promoted.i, %.lr.ph.i ], [ %39, %29 ]
  %28 = icmp ult i64 %26, %6
  br i1 %28, label %29, label %.critedge.loopexit.i

29:                                               ; preds = %25
  %30 = load i64, ptr %0, align 8
  %31 = lshr i64 %30, 8
  store i64 %31, ptr %0, align 8
  %32 = load ptr, ptr %24, align 8
  %33 = getelementptr inbounds i8, ptr %32, i64 %26
  %34 = load i8, ptr %33, align 1
  %35 = zext i8 %34 to i64
  %36 = shl nuw i64 %35, 56
  %37 = or disjoint i64 %36, %31
  store i64 %37, ptr %0, align 8
  %38 = add nuw i64 %26, 1
  store i64 %38, ptr %2, align 8
  %39 = add nsw i32 %27, -8
  store i32 %39, ptr %22, align 8
  %40 = icmp sgt i32 %27, 15
  br i1 %40, label %25, label %.critedge.loopexit.i, !llvm.loop !31

.critedge.loopexit.i:                             ; preds = %29, %25
  %41 = phi i64 [ %26, %25 ], [ %38, %29 ]
  %.lcssa.ph.i = phi i32 [ %27, %25 ], [ %39, %29 ]
  %42 = icmp slt i32 %.lcssa.ph.i, 65
  br label %.critedge.i

.critedge.i:                                      ; preds = %.critedge.loopexit.i, %21
  %43 = phi i64 [ %3, %21 ], [ %41, %.critedge.loopexit.i ]
  %.lcssa.i = phi i1 [ true, %21 ], [ %42, %.critedge.loopexit.i ]
  %44 = getelementptr inbounds i8, ptr %0, i64 36
  %45 = load i32, ptr %44, align 4
  %.not.i.i = icmp eq i32 %45, 0
  %46 = icmp ne i64 %43, %6
  %or.cond.i = or i1 %.lcssa.i, %46
  %or.cond = select i1 %.not.i.i, i1 %or.cond.i, i1 false
  br i1 %or.cond, label %ShiftBytes.exit, label %VP8LIsEndOfStream.exit.thread12.i

VP8LIsEndOfStream.exit.thread12.i:                ; preds = %.critedge.i
  store i32 1, ptr %44, align 4
  store i32 0, ptr %22, align 8
  br label %ShiftBytes.exit

ShiftBytes.exit:                                  ; preds = %.critedge.i, %VP8LIsEndOfStream.exit.thread12.i, %8
  ret void
}